target datalayout = "e-m:e-p270:32:32-p271:32:32-p272:64:64-i64:64-i128:128-f80:128-n8:16:32:64-S128"
target triple = "x86_64-pc-linux-gnu"

@.str.149 = private unnamed_addr constant [5 x i8] c"nvml\00", align 1
@.str.150 = private unnamed_addr constant [5 x i8] c"rsmi\00", align 1
@.str.151 = private unnamed_addr constant [7 x i8] c"oneapi\00", align 1
@.str.152 = private unnamed_addr constant [4 x i8] c"nrt\00", align 1
@.str.153 = private unnamed_addr constant [7 x i8] c"nvidia\00", align 1
@.str.154 = private unnamed_addr constant [4 x i8] c"off\00", align 1
@.str.155 = private unnamed_addr constant [29 x i8] c"unknown autodetect flag '%s'\00", align 1

; Function Attrs: nounwind uwtable
define internal i32 @_handle_autodetect_flags(ptr noundef %0) #0 {
  %2 = alloca ptr, align 8
  %3 = alloca i32, align 4
  store ptr %0, ptr %2, align 8
  call void @llvm.lifetime.start.p0(i64 4, ptr %3) #11
  store i32 0, ptr %3, align 4
  %4 = load ptr, ptr %2, align 8
  %5 = call ptr @xstrcasestr(ptr noundef %4, ptr noundef @.str.149)
  %6 = icmp ne ptr %5, null
  br i1 %6, label %7, label %10

7:                                                ; preds = %1
  %8 = load i32, ptr %3, align 4
  %9 = or i32 %8, 1
  store i32 %9, ptr %3, align 4
  br label %53

10:                                               ; preds = %1
  %11 = load ptr, ptr %2, align 8
  %12 = call ptr @xstrcasestr(ptr noundef %11, ptr noundef @.str.150)
  %13 = icmp ne ptr %12, null
  br i1 %13, label %14, label %17

14:                                               ; preds = %10
  %15 = load i32, ptr %3, align 4
  %16 = or i32 %15, 2
  store i32 %16, ptr %3, align 4
  br label %52

17:                                               ; preds = %10
  %18 = load ptr, ptr %2, align 8
  %19 = call ptr @xstrcasestr(ptr noundef %18, ptr noundef @.str.151)
  %20 = icmp ne ptr %19, null
  br i1 %20, label %21, label %24

21:                                               ; preds = %17
  %22 = load i32, ptr %3, align 4
  %23 = or i32 %22, 8
  store i32 %23, ptr %3, align 4
  br label %51

24:                                               ; preds = %17
  %25 = load ptr, ptr %2, align 8
  %26 = call ptr @xstrcasestr(ptr noundef %25, ptr noundef @.str.152)
  %27 = icmp ne ptr %26, null
  br i1 %27, label %28, label %31

28:                                               ; preds = %24
  %29 = load i32, ptr %3, align 4
  %30 = or i32 %29, 16
  store i32 %30, ptr %3, align 4
  br label %50

31:                                               ; preds = %24
  %32 = load ptr, ptr %2, align 8
  %33 = call ptr @xstrcasestr(ptr noundef %32, ptr noundef @.str.153)
  %34 = icmp ne ptr %33, null
  br i1 %34, label %35, label %38

35:                                               ; preds = %31
  %36 = load i32, ptr %3, align 4
  %37 = or i32 %36, 32
  store i32 %37, ptr %3, align 4
  br label %49

38:                                               ; preds = %31
  %39 = load ptr, ptr %2, align 8
  %40 = call i32 @xstrcasecmp(ptr noundef %39, ptr noundef @.str.154)
  %41 = icmp ne i32 %40, 0
  br i1 %41, label %45, label %42

42:                                               ; preds = %38
  %43 = load i32, ptr %3, align 4
  %44 = or i32 %43, 4
  store i32 %44, ptr %3, align 4
  br label %48

45:                                               ; preds = %38
  %46 = load ptr, ptr %2, align 8
  %47 = call i32 (ptr, ...) @error(ptr noundef @.str.155, ptr noundef %46)
  br label %48

48:                                               ; preds = %45, %42
  br label %49

49:                                               ; preds = %48, %35
  br label %50

50:                                               ; preds = %49, %28
  br label %51

51:                                               ; preds = %50, %21
  br label %52

52:                                               ; preds = %51, %14
  br label %53

53:                                               ; preds = %52, %7
  %54 = load i32, ptr %3, align 4
  call void @llvm.lifetime.end.p0(i64 4, ptr %3) #11
  ret i32 %54
}