; Function Attrs: nounwind uwtable
define internal fastcc range(i32 0, 33) i32 @_handle_autodetect_flags(ptr noundef %0) unnamed_addr #2 {
  %2 = tail call ptr @xstrcasestr(ptr noundef %0, ptr noundef nonnull @.str.149) #28
  %.not = icmp eq ptr %2, null
  br i1 %.not, label %3, label %15

3:                                                ; preds = %1
  %4 = tail call ptr @xstrcasestr(ptr noundef %0, ptr noundef nonnull @.str.150) #28
  %.not13 = icmp eq ptr %4, null
  br i1 %.not13, label %5, label %15

5:                                                ; preds = %3
  %6 = tail call ptr @xstrcasestr(ptr noundef %0, ptr noundef nonnull @.str.151) #28
  %.not14 = icmp eq ptr %6, null
  br i1 %.not14, label %7, label %15

7:                                                ; preds = %5
  %8 = tail call ptr @xstrcasestr(ptr noundef %0, ptr noundef nonnull @.str.152) #28
  %.not15 = icmp eq ptr %8, null
  br i1 %.not15, label %9, label %15

9:                                                ; preds = %7
  %10 = tail call ptr @xstrcasestr(ptr noundef %0, ptr noundef nonnull @.str.153) #28
  %.not16 = icmp eq ptr %10, null
  br i1 %.not16, label %11, label %15

11:                                               ; preds = %9
  %12 = tail call i32 @xstrcasecmp(ptr noundef %0, ptr noundef nonnull @.str.154) #28
  %.not17 = icmp eq i32 %12, 0
  br i1 %.not17, label %15, label %13

13:                                               ; preds = %11
  %14 = tail call i32 (ptr, ...) @error(ptr noundef nonnull @.str.155, ptr noundef %0) #28
  br label %15

15:                                               ; preds = %11, %9, %7, %5, %3, %1, %13
  %.0 = phi i32 [ 0, %13 ], [ 1, %1 ], [ 2, %3 ], [ 8, %5 ], [ 16, %7 ], [ 32, %9 ], [ 4, %11 ]
  ret i32 %.0
}